target datalayout = "e-m:e-p270:32:32-p271:32:32-p272:64:64-i64:64-i128:128-f80:128-n8:16:32:64-S128"
target triple = "x86_64-pc-linux-gnu"

%struct.stack_st = type { i64, ptr, i64, i64, ptr }

; Function Attrs: nounwind uwtable
define hidden ptr @sk_set_cmp_func(ptr noundef %0, ptr noundef %1) #0 {
  %3 = alloca ptr, align 8
  %4 = alloca ptr, align 8
  %5 = alloca ptr, align 8
  store ptr %0, ptr %3, align 8, !tbaa !10
  store ptr %1, ptr %4, align 8, !tbaa !6
  call void @llvm.lifetime.start.p0(i64 8, ptr %5) #9
  %6 = load ptr, ptr %3, align 8, !tbaa !10
  %7 = getelementptr inbounds nuw %struct.stack_st, ptr %6, i32 0, i32 4
  %8 = load ptr, ptr %7, align 8, !tbaa !15
  store ptr %8, ptr %5, align 8, !tbaa !6
  %9 = load ptr, ptr %3, align 8, !tbaa !10
  %10 = getelementptr inbounds nuw %struct.stack_st, ptr %9, i32 0, i32 4
  %11 = load ptr, ptr %10, align 8, !tbaa !15
  %12 = load ptr, ptr %4, align 8, !tbaa !6
  %13 = icmp ne ptr %11, %12
  br i1 %13, label %14, label %17

14:                                               ; preds = %2
  %15 = load ptr, ptr %3, align 8, !tbaa !10
  %16 = getelementptr inbounds nuw %struct.stack_st, ptr %15, i32 0, i32 2
  store i64 0, ptr %16, align 8, !tbaa !18
  br label %17

17:                                               ; preds = %14, %2
  %18 = load ptr, ptr %4, align 8, !tbaa !6
  %19 = load ptr, ptr %3, align 8, !tbaa !10
  %20 = getelementptr inbounds nuw %struct.stack_st, ptr %19, i32 0, i32 4
  store ptr %18, ptr %20, align 8, !tbaa !15
  %21 = load ptr, ptr %5, align 8, !tbaa !6
  call void @llvm.lifetime.end.p0(i64 8, ptr %5) #9
  ret ptr %21
}