; Function Attrs: mustprogress nofree norecurse nosync nounwind willreturn memory(argmem: readwrite) uwtable
define hidden ptr @sk_set_cmp_func(ptr noundef captures(none) %0, ptr noundef %1) local_unnamed_addr #15 {
  %3 = getelementptr inbounds nuw i8, ptr %0, i64 32
  %4 = load ptr, ptr %3, align 8, !tbaa !12
  %.not = icmp eq ptr %4, %1
  br i1 %.not, label %7, label %5

5:                                                ; preds = %2
  %6 = getelementptr inbounds nuw i8, ptr %0, i64 16
  store i64 0, ptr %6, align 8, !tbaa !15
  br label %7

7:                                                ; preds = %5, %2
  store ptr %1, ptr %3, align 8, !tbaa !12
  ret ptr %4
}